target datalayout = "e-m:e-p270:32:32-p271:32:32-p272:64:64-i64:64-i128:128-f80:128-n8:16:32:64-S128"
target triple = "x86_64-pc-linux-gnu"

%"class.igl::opengl::ViewerCore" = type { i32, [12 x i8], %"class.Eigen::Matrix.3", %"class.Eigen::Matrix.12", i8, i8, i32, i32, i32, i32, i32, float, i32, [4 x i8], %"class.Eigen::Quaternion", float, float, i8, %"class.Eigen::Matrix.12", %"class.Eigen::Matrix.12", %"class.Eigen::Matrix.12", %"class.Eigen::Matrix.12", %"class.Eigen::Matrix.12", float, float, float, i8, i8, double, float, [12 x i8], %"class.Eigen::Matrix.3", %"class.Eigen::Matrix.22", %"class.Eigen::Matrix.22", %"class.Eigen::Matrix.22", %"class.Eigen::Matrix.22", %"class.Eigen::Matrix.22" }
%"class.Eigen::Quaternion" = type { %"class.Eigen::Matrix.3" }
%"class.Eigen::Matrix.12" = type { %"class.Eigen::PlainObjectBase.13" }
%"class.Eigen::PlainObjectBase.13" = type { %"class.Eigen::DenseStorage.20" }
%"class.Eigen::DenseStorage.20" = type { %"struct.Eigen::internal::plain_array.21" }
%"struct.Eigen::internal::plain_array.21" = type { [3 x float] }
%"class.Eigen::Matrix.3" = type { %"class.Eigen::PlainObjectBase.4" }
%"class.Eigen::PlainObjectBase.4" = type { %"class.Eigen::DenseStorage.11" }
%"class.Eigen::DenseStorage.11" = type { %"struct.Eigen::internal::plain_array" }
%"struct.Eigen::internal::plain_array" = type { [4 x float] }
%"class.Eigen::Matrix.22" = type { %"class.Eigen::PlainObjectBase.23" }
%"class.Eigen::PlainObjectBase.23" = type { %"class.Eigen::DenseStorage.30" }
%"class.Eigen::DenseStorage.30" = type { %"struct.Eigen::internal::plain_array.31" }
%"struct.Eigen::internal::plain_array.31" = type { [16 x float] }
%"class.Eigen::internal::plainobjectbase_evaluator_data" = type { ptr }
%"struct.Eigen::internal::evaluator.379" = type { %"struct.Eigen::internal::evaluator.380" }
%"struct.Eigen::internal::evaluator.380" = type { %"class.Eigen::internal::plainobjectbase_evaluator_data" }

@glad_glScissor = external global ptr, align 8
@glad_glEnable = external global ptr, align 8
@glad_glClearColor = external global ptr, align 8
@glad_glClear = external global ptr, align 8
@glad_glDisable = external global ptr, align 8

; Function Attrs: inlinehint mustprogress nounwind uwtable
define linkonce_odr dso_local void @_ZN5Eigen8internal22ignore_unused_variableIlEEvRKT_(ptr noundef nonnull align 8 dereferenceable(8) %0) #4 comdat {
  %2 = alloca ptr, align 8
  store ptr %0, ptr %2, align 8, !tbaa !327
  ret void
}

; Function Attrs: mustprogress nounwind uwtable
define linkonce_odr dso_local noundef ptr @_ZNK5Eigen12DenseStorageIfLi4ELi4ELi1ELi0EE4dataEv(ptr noundef nonnull align 16 dereferenceable(16) %0) #1 comdat align 2 {
  %2 = alloca ptr, align 8
  store ptr %0, ptr %2, align 8, !tbaa !792
  %3 = load ptr, ptr %2, align 8
  %4 = getelementptr inbounds nuw %"class.Eigen::DenseStorage.11", ptr %3, i32 0, i32 0
  %5 = getelementptr inbounds nuw %"struct.Eigen::internal::plain_array", ptr %4, i32 0, i32 0
  %6 = getelementptr inbounds [4 x float], ptr %5, i64 0, i64 0
  ret ptr %6
}

; Function Attrs: inlinehint mustprogress uwtable
define linkonce_odr dso_local void @_ZN5Eigen8internal30plainobjectbase_evaluator_dataIfLi0EEC2EPKfl(ptr noundef nonnull align 8 dereferenceable(8) %0, ptr noundef %1, i64 noundef %2) unnamed_addr #5 comdat align 2 {
  %4 = alloca ptr, align 8
  %5 = alloca ptr, align 8
  %6 = alloca i64, align 8
  store ptr %0, ptr %4, align 8, !tbaa !321
  store ptr %1, ptr %5, align 8, !tbaa !43
  store i64 %2, ptr %6, align 8, !tbaa !75
  %7 = load ptr, ptr %4, align 8
  %8 = getelementptr inbounds nuw %"class.Eigen::internal::plainobjectbase_evaluator_data", ptr %7, i32 0, i32 0
  %9 = load ptr, ptr %5, align 8, !tbaa !43
  store ptr %9, ptr %8, align 8, !tbaa !323
  call void @_ZN5Eigen8internal22ignore_unused_variableIlEEvRKT_(ptr noundef nonnull align 8 dereferenceable(8) %6)
  ret void
}

; Function Attrs: inlinehint mustprogress uwtable
define linkonce_odr dso_local noundef ptr @_ZNK5Eigen15PlainObjectBaseINS_6MatrixIfLi4ELi1ELi0ELi4ELi1EEEE4dataEv(ptr noundef nonnull align 16 dereferenceable(16) %0) #5 comdat align 2 {
  %2 = alloca ptr, align 8
  store ptr %0, ptr %2, align 8, !tbaa !244
  %3 = load ptr, ptr %2, align 8
  %4 = getelementptr inbounds nuw %"class.Eigen::PlainObjectBase.4", ptr %3, i32 0, i32 0
  %5 = call noundef ptr @_ZNK5Eigen12DenseStorageIfLi4ELi4ELi1ELi0EE4dataEv(ptr noundef nonnull align 16 dereferenceable(16) %4)
  ret ptr %5
}

; Function Attrs: inlinehint mustprogress nounwind uwtable
define linkonce_odr dso_local void @_ZN5Eigen8internal14evaluator_baseINS_6MatrixIfLi4ELi1ELi0ELi4ELi1EEEEC2Ev(ptr noundef nonnull align 1 dereferenceable(1) %0) unnamed_addr #4 comdat align 2 {
  %2 = alloca ptr, align 8
  store ptr %0, ptr %2, align 8, !tbaa !790
  ret void
}

; Function Attrs: inlinehint mustprogress uwtable
define linkonce_odr dso_local void @_ZN5Eigen8internal9evaluatorINS_15PlainObjectBaseINS_6MatrixIfLi4ELi1ELi0ELi4ELi1EEEEEEC2ERKS5_(ptr noundef nonnull align 8 dereferenceable(8) %0, ptr noundef nonnull align 16 dereferenceable(16) %1) unnamed_addr #5 comdat align 2 personality ptr @__gxx_personality_v0 {
  %3 = alloca ptr, align 8
  %4 = alloca ptr, align 8
  %5 = alloca ptr, align 8
  %6 = alloca i32, align 4
  store ptr %0, ptr %3, align 8, !tbaa !786
  store ptr %1, ptr %4, align 8, !tbaa !244
  %7 = load ptr, ptr %3, align 8
  call void @_ZN5Eigen8internal14evaluator_baseINS_6MatrixIfLi4ELi1ELi0ELi4ELi1EEEEC2Ev(ptr noundef nonnull align 1 dereferenceable(1) %7)
  %8 = getelementptr inbounds nuw %"struct.Eigen::internal::evaluator.380", ptr %7, i32 0, i32 0
  %9 = load ptr, ptr %4, align 8, !tbaa !244
  %10 = invoke noundef ptr @_ZNK5Eigen15PlainObjectBaseINS_6MatrixIfLi4ELi1ELi0ELi4ELi1EEEE4dataEv(ptr noundef nonnull align 16 dereferenceable(16) %9)
          to label %11 unwind label %13

11:                                               ; preds = %2
  invoke void @_ZN5Eigen8internal30plainobjectbase_evaluator_dataIfLi0EEC2EPKfl(ptr noundef nonnull align 8 dereferenceable(8) %8, ptr noundef %10, i64 noundef 0)
          to label %12 unwind label %13

12:                                               ; preds = %11
  ret void

13:                                               ; preds = %11, %2
  %14 = landingpad { ptr, i32 }
          cleanup
  %15 = extractvalue { ptr, i32 } %14, 0
  store ptr %15, ptr %5, align 8
  %16 = extractvalue { ptr, i32 } %14, 1
  store i32 %16, ptr %6, align 4
  call void @_ZN5Eigen8internal14evaluator_baseINS_6MatrixIfLi4ELi1ELi0ELi4ELi1EEEED2Ev(ptr noundef nonnull align 1 dereferenceable(1) %7) #20
  br label %17

17:                                               ; preds = %13
  %18 = load ptr, ptr %5, align 8
  %19 = load i32, ptr %6, align 4
  %20 = insertvalue { ptr, i32 } poison, ptr %18, 0
  %21 = insertvalue { ptr, i32 } %20, i32 %19, 1
  resume { ptr, i32 } %21
}

; Function Attrs: inlinehint mustprogress nounwind uwtable
define linkonce_odr dso_local void @_ZN5Eigen8internal14evaluator_baseINS_6MatrixIfLi4ELi1ELi0ELi4ELi1EEEED2Ev(ptr noundef nonnull align 1 dereferenceable(1) %0) unnamed_addr #4 comdat align 2 {
  %2 = alloca ptr, align 8
  store ptr %0, ptr %2, align 8, !tbaa !790
  ret void
}

; Function Attrs: inlinehint mustprogress nounwind uwtable
define linkonce_odr dso_local noundef nonnull align 4 dereferenceable(4) ptr @_ZN5Eigen8internal9evaluatorINS_15PlainObjectBaseINS_6MatrixIfLi4ELi1ELi0ELi4ELi1EEEEEE8coeffRefEl(ptr noundef nonnull align 8 dereferenceable(8) %0, i64 noundef %1) #4 comdat align 2 {
  %3 = alloca ptr, align 8
  %4 = alloca i64, align 8
  store ptr %0, ptr %3, align 8, !tbaa !786
  store i64 %1, ptr %4, align 8, !tbaa !75
  %5 = load ptr, ptr %3, align 8
  %6 = getelementptr inbounds nuw %"struct.Eigen::internal::evaluator.380", ptr %5, i32 0, i32 0
  %7 = getelementptr inbounds nuw %"class.Eigen::internal::plainobjectbase_evaluator_data", ptr %6, i32 0, i32 0
  %8 = load ptr, ptr %7, align 8, !tbaa !788
  %9 = load i64, ptr %4, align 8, !tbaa !75
  %10 = getelementptr inbounds float, ptr %8, i64 %9
  ret ptr %10
}

; Function Attrs: inlinehint mustprogress uwtable
define linkonce_odr dso_local void @_ZN5Eigen8internal9evaluatorINS_6MatrixIfLi4ELi1ELi0ELi4ELi1EEEEC2ERKS3_(ptr noundef nonnull align 8 dereferenceable(8) %0, ptr noundef nonnull align 16 dereferenceable(16) %1) unnamed_addr #5 comdat align 2 {
  %3 = alloca ptr, align 8
  %4 = alloca ptr, align 8
  store ptr %0, ptr %3, align 8, !tbaa !784
  store ptr %1, ptr %4, align 8, !tbaa !220
  %5 = load ptr, ptr %3, align 8
  %6 = load ptr, ptr %4, align 8, !tbaa !220
  call void @_ZN5Eigen8internal9evaluatorINS_15PlainObjectBaseINS_6MatrixIfLi4ELi1ELi0ELi4ELi1EEEEEEC2ERKS5_(ptr noundef nonnull align 8 dereferenceable(8) %5, ptr noundef nonnull align 16 dereferenceable(16) %6)
  ret void
}

; Function Attrs: mustprogress nounwind uwtable
define linkonce_odr dso_local noundef nonnull align 16 dereferenceable(16) ptr @_ZN5Eigen9EigenBaseINS_6MatrixIfLi4ELi1ELi0ELi4ELi1EEEE7derivedEv(ptr noundef nonnull align 1 dereferenceable(1) %0) #1 comdat align 2 {
  %2 = alloca ptr, align 8
  store ptr %0, ptr %2, align 8, !tbaa !782
  %3 = load ptr, ptr %2, align 8
  ret ptr %3
}

; Function Attrs: inlinehint mustprogress uwtable
define linkonce_odr dso_local noundef nonnull align 4 dereferenceable(4) ptr @_ZN5Eigen15DenseCoeffsBaseINS_6MatrixIfLi4ELi1ELi0ELi4ELi1EEELi1EE8coeffRefEl(ptr noundef nonnull align 1 dereferenceable(1) %0, i64 noundef %1) #5 comdat align 2 personality ptr @__gxx_personality_v0 {
  %3 = alloca ptr, align 8
  %4 = alloca i64, align 8
  %5 = alloca %"struct.Eigen::internal::evaluator.379", align 8
  %6 = alloca ptr, align 8
  %7 = alloca i32, align 4
  store ptr %0, ptr %3, align 8, !tbaa !90
  store i64 %1, ptr %4, align 8, !tbaa !75
  %8 = load ptr, ptr %3, align 8
  call void @llvm.lifetime.start.p0(i64 8, ptr %5) #20
  %9 = call noundef nonnull align 16 dereferenceable(16) ptr @_ZN5Eigen9EigenBaseINS_6MatrixIfLi4ELi1ELi0ELi4ELi1EEEE7derivedEv(ptr noundef nonnull align 1 dereferenceable(1) %8)
  call void @_ZN5Eigen8internal9evaluatorINS_6MatrixIfLi4ELi1ELi0ELi4ELi1EEEEC2ERKS3_(ptr noundef nonnull align 8 dereferenceable(8) %5, ptr noundef nonnull align 16 dereferenceable(16) %9)
  %10 = load i64, ptr %4, align 8, !tbaa !75
  %11 = invoke noundef nonnull align 4 dereferenceable(4) ptr @_ZN5Eigen8internal9evaluatorINS_15PlainObjectBaseINS_6MatrixIfLi4ELi1ELi0ELi4ELi1EEEEEE8coeffRefEl(ptr noundef nonnull align 8 dereferenceable(8) %5, i64 noundef %10)
          to label %12 unwind label %13

12:                                               ; preds = %2
  call void @_ZN5Eigen8internal14evaluator_baseINS_6MatrixIfLi4ELi1ELi0ELi4ELi1EEEED2Ev(ptr noundef nonnull align 8 dereferenceable(8) %5) #20
  call void @llvm.lifetime.end.p0(i64 8, ptr %5) #20
  ret ptr %11

13:                                               ; preds = %2
  %14 = landingpad { ptr, i32 }
          cleanup
  %15 = extractvalue { ptr, i32 } %14, 0
  store ptr %15, ptr %6, align 8
  %16 = extractvalue { ptr, i32 } %14, 1
  store i32 %16, ptr %7, align 4
  call void @_ZN5Eigen8internal14evaluator_baseINS_6MatrixIfLi4ELi1ELi0ELi4ELi1EEEED2Ev(ptr noundef nonnull align 8 dereferenceable(8) %5) #20
  call void @llvm.lifetime.end.p0(i64 8, ptr %5) #20
  br label %17

17:                                               ; preds = %13
  %18 = load ptr, ptr %6, align 8
  %19 = load i32, ptr %7, align 4
  %20 = insertvalue { ptr, i32 } poison, ptr %18, 0
  %21 = insertvalue { ptr, i32 } %20, i32 %19, 1
  resume { ptr, i32 } %21
}

; Function Attrs: inlinehint mustprogress uwtable
define linkonce_odr dso_local noundef nonnull align 4 dereferenceable(4) ptr @_ZN5Eigen15DenseCoeffsBaseINS_6MatrixIfLi4ELi1ELi0ELi4ELi1EEELi1EEixEl(ptr noundef nonnull align 1 dereferenceable(1) %0, i64 noundef %1) #5 comdat align 2 {
  %3 = alloca ptr, align 8
  %4 = alloca i64, align 8
  store ptr %0, ptr %3, align 8, !tbaa !90
  store i64 %1, ptr %4, align 8, !tbaa !75
  %5 = load ptr, ptr %3, align 8
  %6 = load i64, ptr %4, align 8, !tbaa !75
  %7 = call noundef nonnull align 4 dereferenceable(4) ptr @_ZN5Eigen15DenseCoeffsBaseINS_6MatrixIfLi4ELi1ELi0ELi4ELi1EEELi1EE8coeffRefEl(ptr noundef nonnull align 1 dereferenceable(1) %5, i64 noundef %6)
  ret ptr %7
}

; Function Attrs: inlinehint mustprogress uwtable
define linkonce_odr dso_local noundef nonnull align 4 dereferenceable(4) ptr @_ZN5Eigen15DenseCoeffsBaseINS_6MatrixIfLi4ELi1ELi0ELi4ELi1EEELi1EEclEl(ptr noundef nonnull align 1 dereferenceable(1) %0, i64 noundef %1) #5 comdat align 2 {
  %3 = alloca ptr, align 8
  %4 = alloca i64, align 8
  store ptr %0, ptr %3, align 8, !tbaa !90
  store i64 %1, ptr %4, align 8, !tbaa !75
  %5 = load ptr, ptr %3, align 8
  %6 = load i64, ptr %4, align 8, !tbaa !75
  %7 = call noundef nonnull align 4 dereferenceable(4) ptr @_ZN5Eigen15DenseCoeffsBaseINS_6MatrixIfLi4ELi1ELi0ELi4ELi1EEELi1EE8coeffRefEl(ptr noundef nonnull align 1 dereferenceable(1) %5, i64 noundef %6)
  ret ptr %7
}

; Function Attrs: mustprogress uwtable
define dso_local void @_ZN3igl6opengl10ViewerCore18clear_framebuffersEv(ptr noundef nonnull align 16 dereferenceable(544) %0) #3 align 2 {
  %2 = alloca ptr, align 8
  store ptr %0, ptr %2, align 8, !tbaa !15
  %3 = load ptr, ptr %2, align 8
  %4 = load ptr, ptr @glad_glScissor, align 8, !tbaa !89
  %5 = getelementptr inbounds nuw %"class.igl::opengl::ViewerCore", ptr %3, i32 0, i32 31
  %6 = call noundef nonnull align 4 dereferenceable(4) ptr @_ZN5Eigen15DenseCoeffsBaseINS_6MatrixIfLi4ELi1ELi0ELi4ELi1EEELi1EEclEl(ptr noundef nonnull align 1 dereferenceable(1) %5, i64 noundef 0)
  %7 = load float, ptr %6, align 4, !tbaa !62
  %8 = fptosi float %7 to i32
  %9 = getelementptr inbounds nuw %"class.igl::opengl::ViewerCore", ptr %3, i32 0, i32 31
  %10 = call noundef nonnull align 4 dereferenceable(4) ptr @_ZN5Eigen15DenseCoeffsBaseINS_6MatrixIfLi4ELi1ELi0ELi4ELi1EEELi1EEclEl(ptr noundef nonnull align 1 dereferenceable(1) %9, i64 noundef 1)
  %11 = load float, ptr %10, align 4, !tbaa !62
  %12 = fptosi float %11 to i32
  %13 = getelementptr inbounds nuw %"class.igl::opengl::ViewerCore", ptr %3, i32 0, i32 31
  %14 = call noundef nonnull align 4 dereferenceable(4) ptr @_ZN5Eigen15DenseCoeffsBaseINS_6MatrixIfLi4ELi1ELi0ELi4ELi1EEELi1EEclEl(ptr noundef nonnull align 1 dereferenceable(1) %13, i64 noundef 2)
  %15 = load float, ptr %14, align 4, !tbaa !62
  %16 = fptosi float %15 to i32
  %17 = getelementptr inbounds nuw %"class.igl::opengl::ViewerCore", ptr %3, i32 0, i32 31
  %18 = call noundef nonnull align 4 dereferenceable(4) ptr @_ZN5Eigen15DenseCoeffsBaseINS_6MatrixIfLi4ELi1ELi0ELi4ELi1EEELi1EEclEl(ptr noundef nonnull align 1 dereferenceable(1) %17, i64 noundef 3)
  %19 = load float, ptr %18, align 4, !tbaa !62
  %20 = fptosi float %19 to i32
  call void %4(i32 noundef %8, i32 noundef %12, i32 noundef %16, i32 noundef %20)
  %21 = load ptr, ptr @glad_glEnable, align 8, !tbaa !89
  call void %21(i32 noundef 3089)
  %22 = load ptr, ptr @glad_glClearColor, align 8, !tbaa !89
  %23 = getelementptr inbounds nuw %"class.igl::opengl::ViewerCore", ptr %3, i32 0, i32 2
  %24 = call noundef nonnull align 4 dereferenceable(4) ptr @_ZN5Eigen15DenseCoeffsBaseINS_6MatrixIfLi4ELi1ELi0ELi4ELi1EEELi1EEixEl(ptr noundef nonnull align 1 dereferenceable(1) %23, i64 noundef 0)
  %25 = load float, ptr %24, align 4, !tbaa !62
  %26 = getelementptr inbounds nuw %"class.igl::opengl::ViewerCore", ptr %3, i32 0, i32 2
  %27 = call noundef nonnull align 4 dereferenceable(4) ptr @_ZN5Eigen15DenseCoeffsBaseINS_6MatrixIfLi4ELi1ELi0ELi4ELi1EEELi1EEixEl(ptr noundef nonnull align 1 dereferenceable(1) %26, i64 noundef 1)
  %28 = load float, ptr %27, align 4, !tbaa !62
  %29 = getelementptr inbounds nuw %"class.igl::opengl::ViewerCore", ptr %3, i32 0, i32 2
  %30 = call noundef nonnull align 4 dereferenceable(4) ptr @_ZN5Eigen15DenseCoeffsBaseINS_6MatrixIfLi4ELi1ELi0ELi4ELi1EEELi1EEixEl(ptr noundef nonnull align 1 dereferenceable(1) %29, i64 noundef 2)
  %31 = load float, ptr %30, align 4, !tbaa !62
  %32 = getelementptr inbounds nuw %"class.igl::opengl::ViewerCore", ptr %3, i32 0, i32 2
  %33 = call noundef nonnull align 4 dereferenceable(4) ptr @_ZN5Eigen15DenseCoeffsBaseINS_6MatrixIfLi4ELi1ELi0ELi4ELi1EEELi1EEixEl(ptr noundef nonnull align 1 dereferenceable(1) %32, i64 noundef 3)
  %34 = load float, ptr %33, align 4, !tbaa !62
  call void %22(float noundef %25, float noundef %28, float noundef %31, float noundef %34)
  %35 = load ptr, ptr @glad_glClear, align 8, !tbaa !89
  call void %35(i32 noundef 16640)
  %36 = load ptr, ptr @glad_glDisable, align 8, !tbaa !89
  call void %36(i32 noundef 3089)
  ret void
}