; Function Attrs: mustprogress uwtable
define dso_local void @_ZN3igl6opengl10ViewerCore18clear_framebuffersEv(ptr noundef nonnull readonly align 16 captures(none) dereferenceable(544) %0) local_unnamed_addr #3 align 2 personality ptr @__gxx_personality_v0 {
  %2 = load ptr, ptr @glad_glScissor, align 8, !tbaa !58
  %3 = getelementptr inbounds nuw i8, ptr %0, i64 208
  %4 = load float, ptr %3, align 16, !tbaa !55
  %5 = fptosi float %4 to i32
  %6 = getelementptr inbounds nuw i8, ptr %0, i64 212
  %7 = load float, ptr %6, align 4, !tbaa !55
  %8 = fptosi float %7 to i32
  %9 = getelementptr inbounds nuw i8, ptr %0, i64 216
  %10 = load float, ptr %9, align 8, !tbaa !55
  %11 = fptosi float %10 to i32
  %12 = getelementptr inbounds nuw i8, ptr %0, i64 220
  %13 = load float, ptr %12, align 4, !tbaa !55
  %14 = fptosi float %13 to i32
  tail call void %2(i32 noundef %5, i32 noundef %8, i32 noundef %11, i32 noundef %14)
  %15 = load ptr, ptr @glad_glEnable, align 8, !tbaa !58
  tail call void %15(i32 noundef 3089)
  %16 = load ptr, ptr @glad_glClearColor, align 8, !tbaa !58
  %17 = getelementptr inbounds nuw i8, ptr %0, i64 16
  %18 = load float, ptr %17, align 16, !tbaa !55
  %19 = getelementptr inbounds nuw i8, ptr %0, i64 20
  %20 = load float, ptr %19, align 4, !tbaa !55
  %21 = getelementptr inbounds nuw i8, ptr %0, i64 24
  %22 = load float, ptr %21, align 8, !tbaa !55
  %23 = getelementptr inbounds nuw i8, ptr %0, i64 28
  %24 = load float, ptr %23, align 4, !tbaa !55
  tail call void %16(float noundef %18, float noundef %20, float noundef %22, float noundef %24)
  %25 = load ptr, ptr @glad_glClear, align 8, !tbaa !58
  tail call void %25(i32 noundef 16640)
  %26 = load ptr, ptr @glad_glDisable, align 8, !tbaa !58
  tail call void %26(i32 noundef 3089)
  ret void
}